; Function Attrs: uwtable
define hidden void @_ZThn48_N8intblast6solver11internalizeEP4expr(ptr noundef %0, ptr noundef %1) unnamed_addr #8 align 2 {
  %3 = getelementptr inbounds i8, ptr %0, i64 -48
  %4 = getelementptr inbounds nuw i8, ptr %0, i64 56
  %5 = load i32, ptr %4, align 8, !tbaa !442
  %.not1.i.i = icmp eq i32 %5, 0
  br i1 %.not1.i.i, label %_ZN8intblast6solver11internalizeEP4expr.exit, label %.lr.ph.i.i

.lr.ph.i.i:                                       ; preds = %2, %.lr.ph.i.i
  %6 = load ptr, ptr %3, align 8, !tbaa !10
  %7 = getelementptr inbounds nuw i8, ptr %6, i64 512
  %8 = load ptr, ptr %7, align 8
  tail call void %8(ptr noundef nonnull align 8 dereferenceable(420) %3)
  %9 = load i32, ptr %4, align 8, !tbaa !442
  %10 = add i32 %9, -1
  store i32 %10, ptr %4, align 8, !tbaa !442
  %.not.i.i = icmp eq i32 %10, 0
  br i1 %.not.i.i, label %_ZN8intblast6solver11internalizeEP4expr.exit, label %.lr.ph.i.i, !llvm.loop !443

_ZN8intblast6solver11internalizeEP4expr.exit:     ; preds = %.lr.ph.i.i, %2
  %11 = getelementptr inbounds nuw i8, ptr %0, i64 80
  %12 = load ptr, ptr %11, align 8, !tbaa !406
  %13 = tail call noundef zeroext i1 @_ZN3euf15th_internalizer9visit_recER11ast_managerP4exprbb(ptr noundef nonnull align 8 dereferenceable(24) %0, ptr noundef nonnull align 8 dereferenceable(976) %12, ptr noundef %1, i1 noundef zeroext false, i1 noundef zeroext false)
  ret void
}